target datalayout = "e-m:e-p270:32:32-p271:32:32-p272:64:64-i64:64-i128:128-f80:128-n8:16:32:64-S128"
target triple = "x86_64-pc-linux-gnu"

; Function Attrs: inlinehint nounwind uwtable
define internal void @memset_bpc(ptr noundef %0, i32 noundef %1, i32 noundef %2) #5 {
  %4 = alloca ptr, align 8
  %5 = alloca i32, align 4
  %6 = alloca i32, align 4
  %7 = alloca i32, align 4
  store ptr %0, ptr %4, align 8, !tbaa !14
  store i32 %1, ptr %5, align 4, !tbaa !19
  store i32 %2, ptr %6, align 4, !tbaa !19
  call void @llvm.lifetime.start.p0(i64 4, ptr %7) #9
  store i32 0, ptr %7, align 4, !tbaa !19
  br label %8

8:                                                ; preds = %19, %3
  %9 = load i32, ptr %7, align 4, !tbaa !19
  %10 = load i32, ptr %6, align 4, !tbaa !19
  %11 = icmp slt i32 %9, %10
  br i1 %11, label %12, label %22

12:                                               ; preds = %8
  %13 = load i32, ptr %5, align 4, !tbaa !19
  %14 = trunc i32 %13 to i16
  %15 = load ptr, ptr %4, align 8, !tbaa !14
  %16 = load i32, ptr %7, align 4, !tbaa !19
  %17 = sext i32 %16 to i64
  %18 = getelementptr inbounds i16, ptr %15, i64 %17
  store i16 %14, ptr %18, align 2, !tbaa !17
  br label %19

19:                                               ; preds = %12
  %20 = load i32, ptr %7, align 4, !tbaa !19
  %21 = add nsw i32 %20, 1
  store i32 %21, ptr %7, align 4, !tbaa !19
  br label %8, !llvm.loop !92

22:                                               ; preds = %8
  call void @llvm.lifetime.end.p0(i64 4, ptr %7) #9
  ret void
}

; Function Attrs: nounwind uwtable
define internal void @diag_downleft_8x8_c(ptr noundef %0, i64 noundef %1, ptr noundef %2, ptr noundef %3) #1 {
  %5 = alloca ptr, align 8
  %6 = alloca i64, align 8
  %7 = alloca ptr, align 8
  %8 = alloca ptr, align 8
  %9 = alloca ptr, align 8
  %10 = alloca ptr, align 8
  %11 = alloca i32, align 4
  %12 = alloca i32, align 4
  %13 = alloca [7 x i16], align 2
  store ptr %0, ptr %5, align 8, !tbaa !10
  store i64 %1, ptr %6, align 8, !tbaa !12
  store ptr %2, ptr %7, align 8, !tbaa !10
  store ptr %3, ptr %8, align 8, !tbaa !10
  call void @llvm.lifetime.start.p0(i64 8, ptr %9) #9
  %14 = load ptr, ptr %5, align 8, !tbaa !10
  store ptr %14, ptr %9, align 8, !tbaa !14
  call void @llvm.lifetime.start.p0(i64 8, ptr %10) #9
  %15 = load ptr, ptr %8, align 8, !tbaa !10
  store ptr %15, ptr %10, align 8, !tbaa !14
  call void @llvm.lifetime.start.p0(i64 4, ptr %11) #9
  call void @llvm.lifetime.start.p0(i64 4, ptr %12) #9
  call void @llvm.lifetime.start.p0(i64 14, ptr %13) #9
  %16 = load i64, ptr %6, align 8, !tbaa !12
  %17 = udiv i64 %16, 2
  store i64 %17, ptr %6, align 8, !tbaa !12
  store i32 0, ptr %11, align 4, !tbaa !19
  br label %18

18:                                               ; preds = %51, %4
  %19 = load i32, ptr %11, align 4, !tbaa !19
  %20 = icmp slt i32 %19, 6
  br i1 %20, label %21, label %54

21:                                               ; preds = %18
  %22 = load ptr, ptr %10, align 8, !tbaa !14
  %23 = load i32, ptr %11, align 4, !tbaa !19
  %24 = sext i32 %23 to i64
  %25 = getelementptr inbounds i16, ptr %22, i64 %24
  %26 = load i16, ptr %25, align 2, !tbaa !17
  %27 = zext i16 %26 to i32
  %28 = load ptr, ptr %10, align 8, !tbaa !14
  %29 = load i32, ptr %11, align 4, !tbaa !19
  %30 = add nsw i32 %29, 1
  %31 = sext i32 %30 to i64
  %32 = getelementptr inbounds i16, ptr %28, i64 %31
  %33 = load i16, ptr %32, align 2, !tbaa !17
  %34 = zext i16 %33 to i32
  %35 = mul nsw i32 %34, 2
  %36 = add nsw i32 %27, %35
  %37 = load ptr, ptr %10, align 8, !tbaa !14
  %38 = load i32, ptr %11, align 4, !tbaa !19
  %39 = add nsw i32 %38, 2
  %40 = sext i32 %39 to i64
  %41 = getelementptr inbounds i16, ptr %37, i64 %40
  %42 = load i16, ptr %41, align 2, !tbaa !17
  %43 = zext i16 %42 to i32
  %44 = add nsw i32 %36, %43
  %45 = add nsw i32 %44, 2
  %46 = ashr i32 %45, 2
  %47 = trunc i32 %46 to i16
  %48 = load i32, ptr %11, align 4, !tbaa !19
  %49 = sext i32 %48 to i64
  %50 = getelementptr inbounds [7 x i16], ptr %13, i64 0, i64 %49
  store i16 %47, ptr %50, align 2, !tbaa !17
  br label %51

51:                                               ; preds = %21
  %52 = load i32, ptr %11, align 4, !tbaa !19
  %53 = add nsw i32 %52, 1
  store i32 %53, ptr %11, align 4, !tbaa !19
  br label %18, !llvm.loop !26

54:                                               ; preds = %18
  %55 = load ptr, ptr %10, align 8, !tbaa !14
  %56 = getelementptr inbounds i16, ptr %55, i64 6
  %57 = load i16, ptr %56, align 2, !tbaa !17
  %58 = zext i16 %57 to i32
  %59 = load ptr, ptr %10, align 8, !tbaa !14
  %60 = getelementptr inbounds i16, ptr %59, i64 7
  %61 = load i16, ptr %60, align 2, !tbaa !17
  %62 = zext i16 %61 to i32
  %63 = mul nsw i32 %62, 3
  %64 = add nsw i32 %58, %63
  %65 = add nsw i32 %64, 2
  %66 = ashr i32 %65, 2
  %67 = trunc i32 %66 to i16
  %68 = getelementptr inbounds [7 x i16], ptr %13, i64 0, i64 6
  store i16 %67, ptr %68, align 2, !tbaa !17
  store i32 0, ptr %12, align 4, !tbaa !19
  br label %69

69:                                               ; preds = %105, %54
  %70 = load i32, ptr %12, align 4, !tbaa !19
  %71 = icmp slt i32 %70, 8
  br i1 %71, label %72, label %108

72:                                               ; preds = %69
  %73 = load ptr, ptr %9, align 8, !tbaa !14
  %74 = load i32, ptr %12, align 4, !tbaa !19
  %75 = sext i32 %74 to i64
  %76 = load i64, ptr %6, align 8, !tbaa !12
  %77 = mul nsw i64 %75, %76
  %78 = getelementptr inbounds i16, ptr %73, i64 %77
  %79 = getelementptr inbounds [7 x i16], ptr %13, i64 0, i64 0
  %80 = load i32, ptr %12, align 4, !tbaa !19
  %81 = sext i32 %80 to i64
  %82 = getelementptr inbounds i16, ptr %79, i64 %81
  %83 = load i32, ptr %12, align 4, !tbaa !19
  %84 = sub nsw i32 7, %83
  %85 = sext i32 %84 to i64
  %86 = mul i64 %85, 2
  call void @llvm.memcpy.p0.p0.i64(ptr align 2 %78, ptr align 2 %82, i64 %86, i1 false)
  %87 = load ptr, ptr %9, align 8, !tbaa !14
  %88 = load i32, ptr %12, align 4, !tbaa !19
  %89 = sext i32 %88 to i64
  %90 = load i64, ptr %6, align 8, !tbaa !12
  %91 = mul nsw i64 %89, %90
  %92 = getelementptr inbounds i16, ptr %87, i64 %91
  %93 = getelementptr inbounds i16, ptr %92, i64 8
  %94 = getelementptr inbounds i16, ptr %93, i64 -1
  %95 = load i32, ptr %12, align 4, !tbaa !19
  %96 = sext i32 %95 to i64
  %97 = sub i64 0, %96
  %98 = getelementptr inbounds i16, ptr %94, i64 %97
  %99 = load ptr, ptr %10, align 8, !tbaa !14
  %100 = getelementptr inbounds i16, ptr %99, i64 7
  %101 = load i16, ptr %100, align 2, !tbaa !17
  %102 = zext i16 %101 to i32
  %103 = load i32, ptr %12, align 4, !tbaa !19
  %104 = add nsw i32 %103, 1
  call void @memset_bpc(ptr noundef %98, i32 noundef %102, i32 noundef %104)
  br label %105

105:                                              ; preds = %72
  %106 = load i32, ptr %12, align 4, !tbaa !19
  %107 = add nsw i32 %106, 1
  store i32 %107, ptr %12, align 4, !tbaa !19
  br label %69, !llvm.loop !27

108:                                              ; preds = %69
  call void @llvm.lifetime.end.p0(i64 14, ptr %13) #9
  call void @llvm.lifetime.end.p0(i64 4, ptr %12) #9
  call void @llvm.lifetime.end.p0(i64 4, ptr %11) #9
  call void @llvm.lifetime.end.p0(i64 8, ptr %10) #9
  call void @llvm.lifetime.end.p0(i64 8, ptr %9) #9
  ret void
}